target datalayout = "e-m:e-p270:32:32-p271:32:32-p272:64:64-i64:64-i128:128-f80:128-n8:16:32:64-S128"
target triple = "x86_64-pc-linux-gnu"

%"class.tbb::detail::r1::thread_dispatcher" = type { %"class.tbb::detail::r1::rml::tbb_client", %"class.tbb::detail::d1::rw_mutex", [3 x %"class.tbb::detail::r1::intrusive_list"], ptr, i8, ptr, %"struct.std::atomic.0", i32, i64, %"struct.std::atomic.2", ptr }
%"class.tbb::detail::r1::rml::tbb_client" = type { %"class.rml::client" }
%"class.rml::client" = type { %"class.rml::versioned_object" }
%"class.rml::versioned_object" = type { ptr }
%"class.tbb::detail::d1::rw_mutex" = type { %"struct.std::atomic" }
%"struct.std::atomic" = type { %"struct.std::__atomic_base" }
%"struct.std::__atomic_base" = type { i64 }
%"class.tbb::detail::r1::intrusive_list" = type { %"class.tbb::detail::r1::intrusive_list_base" }
%"class.tbb::detail::r1::intrusive_list_base" = type { %"struct.tbb::detail::d1::intrusive_list_node", i64 }
%"struct.tbb::detail::d1::intrusive_list_node" = type { ptr, ptr }
%"struct.std::atomic.0" = type { %"struct.std::__atomic_base.1" }
%"struct.std::__atomic_base.1" = type { i64 }
%"struct.std::atomic.2" = type { %"struct.std::__atomic_base.3" }
%"struct.std::__atomic_base.3" = type { i32 }
%"class.tbb::detail::r1::intrusive_list_base<tbb::detail::r1::intrusive_list<tbb::detail::r1::thread_dispatcher_client>, tbb::detail::r1::thread_dispatcher_client>::iterator_impl" = type { ptr }
%"class.tbb::detail::r1::thread_dispatcher_client" = type { %"struct.tbb::detail::d1::intrusive_list_node", ptr, i64 }
%"struct.std::atomic.11" = type { %"struct.std::__atomic_base.12" }
%"struct.std::__atomic_base.12" = type { i8 }
%"struct.tbb::detail::r1::arena_base" = type { %"struct.tbb::detail::d0::padded.6", %"struct.std::atomic.2", %"struct.std::atomic.2", %"struct.std::atomic.2", [4 x i8], %"class.tbb::detail::r1::task_stream", %"class.tbb::detail::r1::task_stream", %"class.tbb::detail::r1::task_stream.8", i32, i32, %"struct.std::atomic.11", %"class.tbb::detail::r1::atomic_flag", %"class.tbb::detail::r1::observer_list", ptr, ptr, ptr, %"class.tbb::detail::r1::concurrent_monitor", %"class.tbb::detail::r1::arena_co_cache", %"class.tbb::detail::r1::atomic_flag", i32, i32, i32, i32, %"class.tbb::detail::r1::threading_control_client" }
%"struct.tbb::detail::d0::padded.6" = type { %"struct.tbb::detail::d0::padded_base.7" }
%"struct.tbb::detail::d0::padded_base.7" = type { %"struct.tbb::detail::d1::intrusive_list_node", [112 x i8] }
%"class.tbb::detail::r1::task_stream" = type <{ %"struct.std::atomic.0", ptr, i32, [4 x i8] }>
%"class.tbb::detail::r1::task_stream.8" = type <{ %"struct.std::atomic.0", ptr, i32, [4 x i8] }>
%"class.tbb::detail::r1::observer_list" = type { %"struct.std::atomic.13", %"struct.std::atomic.13", %"class.tbb::detail::d0::aligned_space", ptr }
%"struct.std::atomic.13" = type { %"struct.std::__atomic_base.14" }
%"struct.std::__atomic_base.14" = type { ptr }
%"class.tbb::detail::d0::aligned_space" = type { [8 x i8] }
%"class.tbb::detail::r1::concurrent_monitor" = type { %"class.tbb::detail::r1::concurrent_monitor_base.base", [4 x i8] }
%"class.tbb::detail::r1::concurrent_monitor_base.base" = type <{ %"class.tbb::detail::r1::concurrent_monitor_mutex", %"class.tbb::detail::r1::circular_doubly_linked_list_with_sentinel", %"struct.std::atomic.2" }>
%"class.tbb::detail::r1::concurrent_monitor_mutex" = type { %"struct.std::atomic.15", %"struct.std::atomic.15" }
%"struct.std::atomic.15" = type { %"struct.std::__atomic_base.16" }
%"struct.std::__atomic_base.16" = type { i32 }
%"class.tbb::detail::r1::circular_doubly_linked_list_with_sentinel" = type { %"struct.std::atomic.0", %"struct.tbb::detail::r1::circular_doubly_linked_list_with_sentinel::base_node" }
%"struct.tbb::detail::r1::circular_doubly_linked_list_with_sentinel::base_node" = type { ptr, ptr }
%"class.tbb::detail::r1::arena_co_cache" = type <{ ptr, i32, i32, %"class.tbb::detail::d1::spin_mutex", [7 x i8] }>
%"class.tbb::detail::d1::spin_mutex" = type { %"struct.std::atomic.11" }
%"class.tbb::detail::r1::atomic_flag" = type { %"struct.std::atomic.0" }
%"class.tbb::detail::r1::threading_control_client" = type { ptr, ptr }

; Function Attrs: mustprogress nounwind sspstrong uwtable
define linkonce_odr noundef nonnull align 8 dereferenceable(32) ptr @_ZN3tbb6detail2r114intrusive_listINS1_24thread_dispatcher_clientEE4itemEPNS0_2d119intrusive_list_nodeE(ptr noundef %0) #2 comdat align 2 {
  %2 = alloca ptr, align 8
  store ptr %0, ptr %2, align 8, !tbaa !85
  %3 = load ptr, ptr %2, align 8, !tbaa !85
  ret ptr %3
}

; Function Attrs: mustprogress sspstrong uwtable
define linkonce_odr noundef nonnull align 8 dereferenceable(32) ptr @_ZN3tbb6detail2r119intrusive_list_baseINS1_14intrusive_listINS1_24thread_dispatcher_clientEEES4_E4itemEPNS0_2d119intrusive_list_nodeE(ptr noundef %0) #0 comdat align 2 {
  %2 = alloca ptr, align 8
  store ptr %0, ptr %2, align 8, !tbaa !85
  %3 = load ptr, ptr %2, align 8, !tbaa !85
  %4 = call noundef nonnull align 8 dereferenceable(32) ptr @_ZN3tbb6detail2r114intrusive_listINS1_24thread_dispatcher_clientEE4itemEPNS0_2d119intrusive_list_nodeE(ptr noundef %3)
  ret ptr %4
}

; Function Attrs: mustprogress nounwind sspstrong uwtable
define linkonce_odr void @_ZN3tbb6detail2r119intrusive_list_baseINS1_14intrusive_listINS1_24thread_dispatcher_clientEEES4_E13iterator_implIS4_EC2EPNS0_2d119intrusive_list_nodeE(ptr noundef nonnull align 8 dereferenceable(8) %0, ptr noundef %1) unnamed_addr #2 comdat align 2 {
  %3 = alloca ptr, align 8
  %4 = alloca ptr, align 8
  store ptr %0, ptr %3, align 8, !tbaa !60
  store ptr %1, ptr %4, align 8, !tbaa !85
  %5 = load ptr, ptr %3, align 8
  %6 = getelementptr inbounds nuw %"class.tbb::detail::r1::intrusive_list_base<tbb::detail::r1::intrusive_list<tbb::detail::r1::thread_dispatcher_client>, tbb::detail::r1::thread_dispatcher_client>::iterator_impl", ptr %5, i32 0, i32 0
  %7 = load ptr, ptr %4, align 8, !tbaa !85
  store ptr %7, ptr %6, align 8, !tbaa !62
  ret void
}

; Function Attrs: mustprogress nounwind sspstrong uwtable
define linkonce_odr noundef nonnull align 8 dereferenceable(16) ptr @_ZN3tbb6detail2r114intrusive_listINS1_24thread_dispatcher_clientEE4nodeERS3_(ptr noundef nonnull align 8 dereferenceable(32) %0) #2 comdat align 2 {
  %2 = alloca ptr, align 8
  store ptr %0, ptr %2, align 8, !tbaa !48
  %3 = load ptr, ptr %2, align 8, !tbaa !48
  ret ptr %3
}

; Function Attrs: mustprogress sspstrong uwtable
define linkonce_odr noundef nonnull align 8 dereferenceable(32) ptr @_ZNK3tbb6detail2r119intrusive_list_baseINS1_14intrusive_listINS1_24thread_dispatcher_clientEEES4_E13iterator_implIS4_EdeEv(ptr noundef nonnull align 8 dereferenceable(8) %0) #0 comdat align 2 {
  %2 = alloca ptr, align 8
  store ptr %0, ptr %2, align 8, !tbaa !60
  %3 = load ptr, ptr %2, align 8
  %4 = getelementptr inbounds nuw %"class.tbb::detail::r1::intrusive_list_base<tbb::detail::r1::intrusive_list<tbb::detail::r1::thread_dispatcher_client>, tbb::detail::r1::thread_dispatcher_client>::iterator_impl", ptr %3, i32 0, i32 0
  %5 = load ptr, ptr %4, align 8, !tbaa !62
  %6 = call noundef nonnull align 8 dereferenceable(32) ptr @_ZN3tbb6detail2r119intrusive_list_baseINS1_14intrusive_listINS1_24thread_dispatcher_clientEEES4_E4itemEPNS0_2d119intrusive_list_nodeE(ptr noundef %5)
  ret ptr %6
}

; Function Attrs: mustprogress sspstrong uwtable
define linkonce_odr ptr @_ZN3tbb6detail2r119intrusive_list_baseINS1_14intrusive_listINS1_24thread_dispatcher_clientEEES4_E5beginEv(ptr noundef nonnull align 8 dereferenceable(24) %0) #0 comdat align 2 {
  %2 = alloca %"class.tbb::detail::r1::intrusive_list_base<tbb::detail::r1::intrusive_list<tbb::detail::r1::thread_dispatcher_client>, tbb::detail::r1::thread_dispatcher_client>::iterator_impl", align 8
  %3 = alloca ptr, align 8
  store ptr %0, ptr %3, align 8, !tbaa !56
  %4 = load ptr, ptr %3, align 8
  %5 = getelementptr inbounds nuw %"class.tbb::detail::r1::intrusive_list_base", ptr %4, i32 0, i32 0
  %6 = getelementptr inbounds nuw %"struct.tbb::detail::d1::intrusive_list_node", ptr %5, i32 0, i32 1
  %7 = load ptr, ptr %6, align 8, !tbaa !58
  call void @_ZN3tbb6detail2r119intrusive_list_baseINS1_14intrusive_listINS1_24thread_dispatcher_clientEEES4_E13iterator_implIS4_EC2EPNS0_2d119intrusive_list_nodeE(ptr noundef nonnull align 8 dereferenceable(8) %2, ptr noundef %7)
  %8 = getelementptr inbounds nuw %"class.tbb::detail::r1::intrusive_list_base<tbb::detail::r1::intrusive_list<tbb::detail::r1::thread_dispatcher_client>, tbb::detail::r1::thread_dispatcher_client>::iterator_impl", ptr %2, i32 0, i32 0
  %9 = load ptr, ptr %8, align 8
  ret ptr %9
}

; Function Attrs: mustprogress nounwind sspstrong uwtable
define linkonce_odr noundef zeroext i1 @_ZNK3tbb6detail2r119intrusive_list_baseINS1_14intrusive_listINS1_24thread_dispatcher_clientEEES4_E5emptyEv(ptr noundef nonnull align 8 dereferenceable(24) %0) #2 comdat align 2 {
  %2 = alloca ptr, align 8
  store ptr %0, ptr %2, align 8, !tbaa !56
  %3 = load ptr, ptr %2, align 8
  %4 = getelementptr inbounds nuw %"class.tbb::detail::r1::intrusive_list_base", ptr %3, i32 0, i32 0
  %5 = getelementptr inbounds nuw %"struct.tbb::detail::d1::intrusive_list_node", ptr %4, i32 0, i32 1
  %6 = load ptr, ptr %5, align 8, !tbaa !58
  %7 = getelementptr inbounds nuw %"class.tbb::detail::r1::intrusive_list_base", ptr %3, i32 0, i32 0
  %8 = icmp eq ptr %6, %7
  ret i1 %8
}

; Function Attrs: mustprogress nounwind sspstrong uwtable
define linkonce_odr void @_ZNK3tbb6detail2r119intrusive_list_baseINS1_14intrusive_listINS1_24thread_dispatcher_clientEEES4_E9assert_okEv(ptr noundef nonnull align 8 dereferenceable(24) %0) #2 comdat align 2 {
  %2 = alloca ptr, align 8
  store ptr %0, ptr %2, align 8, !tbaa !56
  ret void
}

; Function Attrs: mustprogress sspstrong uwtable
define linkonce_odr noundef nonnull align 8 dereferenceable(16) ptr @_ZN3tbb6detail2r119intrusive_list_baseINS1_14intrusive_listINS1_24thread_dispatcher_clientEEES4_E4nodeERS4_(ptr noundef nonnull align 8 dereferenceable(32) %0) #0 comdat align 2 {
  %2 = alloca ptr, align 8
  store ptr %0, ptr %2, align 8, !tbaa !48
  %3 = load ptr, ptr %2, align 8, !tbaa !48
  %4 = call noundef nonnull align 8 dereferenceable(16) ptr @_ZN3tbb6detail2r114intrusive_listINS1_24thread_dispatcher_clientEE4nodeERS3_(ptr noundef nonnull align 8 dereferenceable(32) %3)
  ret ptr %4
}

; Function Attrs: mustprogress nounwind sspstrong uwtable
define linkonce_odr noundef i32 @_ZN3tbb6detail2r15arena14priority_levelEv(ptr noundef nonnull align 128 dereferenceable(768) %0) #2 comdat align 2 {
  %2 = alloca ptr, align 8
  store ptr %0, ptr %2, align 8, !tbaa !64
  %3 = load ptr, ptr %2, align 8
  %4 = getelementptr inbounds nuw %"struct.tbb::detail::r1::arena_base", ptr %3, i32 0, i32 9
  %5 = load i32, ptr %4, align 4, !tbaa !146
  ret i32 %5
}

; Function Attrs: mustprogress sspstrong uwtable
define noundef ptr @_ZN3tbb6detail2r117thread_dispatcher18select_next_clientEPNS1_24thread_dispatcher_clientE(ptr noundef nonnull align 8 dereferenceable(152) %0, ptr noundef %1) #0 align 2 {
  %3 = alloca ptr, align 8
  %4 = alloca ptr, align 8
  %5 = alloca ptr, align 8
  %6 = alloca i32, align 4
  %7 = alloca i32, align 4
  %8 = alloca i32, align 4
  %9 = alloca %"class.tbb::detail::r1::intrusive_list_base<tbb::detail::r1::intrusive_list<tbb::detail::r1::thread_dispatcher_client>, tbb::detail::r1::thread_dispatcher_client>::iterator_impl", align 8
  store ptr %0, ptr %4, align 8, !tbaa !3
  store ptr %1, ptr %5, align 8, !tbaa !48
  %10 = load ptr, ptr %4, align 8
  call void @llvm.lifetime.start.p0(i64 4, ptr %6) #11
  store i32 3, ptr %6, align 4, !tbaa !10
  %11 = load ptr, ptr %5, align 8, !tbaa !48
  %12 = icmp ne ptr %11, null
  br i1 %12, label %13, label %16

13:                                               ; preds = %2
  %14 = load ptr, ptr %5, align 8, !tbaa !48
  %15 = call noundef i32 @_ZN3tbb6detail2r124thread_dispatcher_client14priority_levelEv(ptr noundef nonnull align 8 dereferenceable(32) %14)
  store i32 %15, ptr %6, align 4, !tbaa !10
  br label %16

16:                                               ; preds = %13, %2
  call void @llvm.lifetime.start.p0(i64 4, ptr %7) #11
  store i32 0, ptr %7, align 4, !tbaa !10
  br label %17

17:                                               ; preds = %37, %16
  %18 = load i32, ptr %7, align 4, !tbaa !10
  %19 = load i32, ptr %6, align 4, !tbaa !10
  %20 = icmp ult i32 %18, %19
  br i1 %20, label %22, label %21

21:                                               ; preds = %17
  store i32 2, ptr %8, align 4
  br label %40

22:                                               ; preds = %17
  %23 = getelementptr inbounds nuw %"class.tbb::detail::r1::thread_dispatcher", ptr %10, i32 0, i32 2
  %24 = load i32, ptr %7, align 4, !tbaa !10
  %25 = zext i32 %24 to i64
  %26 = getelementptr inbounds nuw [3 x %"class.tbb::detail::r1::intrusive_list"], ptr %23, i64 0, i64 %25
  %27 = call noundef zeroext i1 @_ZNK3tbb6detail2r119intrusive_list_baseINS1_14intrusive_listINS1_24thread_dispatcher_clientEEES4_E5emptyEv(ptr noundef nonnull align 8 dereferenceable(24) %26)
  br i1 %27, label %36, label %28

28:                                               ; preds = %22
  call void @llvm.lifetime.start.p0(i64 8, ptr %9) #11
  %29 = getelementptr inbounds nuw %"class.tbb::detail::r1::thread_dispatcher", ptr %10, i32 0, i32 2
  %30 = load i32, ptr %7, align 4, !tbaa !10
  %31 = zext i32 %30 to i64
  %32 = getelementptr inbounds nuw [3 x %"class.tbb::detail::r1::intrusive_list"], ptr %29, i64 0, i64 %31
  %33 = call ptr @_ZN3tbb6detail2r119intrusive_list_baseINS1_14intrusive_listINS1_24thread_dispatcher_clientEEES4_E5beginEv(ptr noundef nonnull align 8 dereferenceable(24) %32)
  %34 = getelementptr inbounds nuw %"class.tbb::detail::r1::intrusive_list_base<tbb::detail::r1::intrusive_list<tbb::detail::r1::thread_dispatcher_client>, tbb::detail::r1::thread_dispatcher_client>::iterator_impl", ptr %9, i32 0, i32 0
  store ptr %33, ptr %34, align 8
  %35 = call noundef nonnull align 8 dereferenceable(32) ptr @_ZNK3tbb6detail2r119intrusive_list_baseINS1_14intrusive_listINS1_24thread_dispatcher_clientEEES4_E13iterator_implIS4_EdeEv(ptr noundef nonnull align 8 dereferenceable(8) %9)
  store ptr %35, ptr %3, align 8
  call void @llvm.lifetime.end.p0(i64 8, ptr %9) #11
  store i32 1, ptr %8, align 4
  br label %40

36:                                               ; preds = %22
  br label %37

37:                                               ; preds = %36
  %38 = load i32, ptr %7, align 4, !tbaa !10
  %39 = add i32 %38, 1
  store i32 %39, ptr %7, align 4, !tbaa !10
  br label %17, !llvm.loop !49

40:                                               ; preds = %28, %21
  call void @llvm.lifetime.end.p0(i64 4, ptr %7) #11
  %41 = load i32, ptr %8, align 4
  switch i32 %41, label %44 [
    i32 2, label %42
  ]

42:                                               ; preds = %40
  %43 = load ptr, ptr %5, align 8, !tbaa !48
  store ptr %43, ptr %3, align 8
  store i32 1, ptr %8, align 4
  br label %44

44:                                               ; preds = %42, %40
  call void @llvm.lifetime.end.p0(i64 4, ptr %6) #11
  %45 = load ptr, ptr %3, align 8
  ret ptr %45
}

; Function Attrs: mustprogress sspstrong uwtable
define linkonce_odr void @_ZN3tbb6detail2r119intrusive_list_baseINS1_14intrusive_listINS1_24thread_dispatcher_clientEEES4_E10push_frontERS4_(ptr noundef nonnull align 8 dereferenceable(24) %0, ptr noundef nonnull align 8 dereferenceable(32) %1) #0 comdat align 2 {
  %3 = alloca ptr, align 8
  %4 = alloca ptr, align 8
  store ptr %0, ptr %3, align 8, !tbaa !56
  store ptr %1, ptr %4, align 8, !tbaa !48
  %5 = load ptr, ptr %3, align 8
  %6 = getelementptr inbounds nuw %"class.tbb::detail::r1::intrusive_list_base", ptr %5, i32 0, i32 0
  %7 = load ptr, ptr %4, align 8, !tbaa !48
  %8 = call noundef nonnull align 8 dereferenceable(16) ptr @_ZN3tbb6detail2r119intrusive_list_baseINS1_14intrusive_listINS1_24thread_dispatcher_clientEEES4_E4nodeERS4_(ptr noundef nonnull align 8 dereferenceable(32) %7)
  %9 = getelementptr inbounds nuw %"struct.tbb::detail::d1::intrusive_list_node", ptr %8, i32 0, i32 0
  store ptr %6, ptr %9, align 8, !tbaa !81
  %10 = getelementptr inbounds nuw %"class.tbb::detail::r1::intrusive_list_base", ptr %5, i32 0, i32 0
  %11 = getelementptr inbounds nuw %"struct.tbb::detail::d1::intrusive_list_node", ptr %10, i32 0, i32 1
  %12 = load ptr, ptr %11, align 8, !tbaa !58
  %13 = load ptr, ptr %4, align 8, !tbaa !48
  %14 = call noundef nonnull align 8 dereferenceable(16) ptr @_ZN3tbb6detail2r119intrusive_list_baseINS1_14intrusive_listINS1_24thread_dispatcher_clientEEES4_E4nodeERS4_(ptr noundef nonnull align 8 dereferenceable(32) %13)
  %15 = getelementptr inbounds nuw %"struct.tbb::detail::d1::intrusive_list_node", ptr %14, i32 0, i32 1
  store ptr %12, ptr %15, align 8, !tbaa !80
  %16 = load ptr, ptr %4, align 8, !tbaa !48
  %17 = call noundef nonnull align 8 dereferenceable(16) ptr @_ZN3tbb6detail2r119intrusive_list_baseINS1_14intrusive_listINS1_24thread_dispatcher_clientEEES4_E4nodeERS4_(ptr noundef nonnull align 8 dereferenceable(32) %16)
  %18 = getelementptr inbounds nuw %"class.tbb::detail::r1::intrusive_list_base", ptr %5, i32 0, i32 0
  %19 = getelementptr inbounds nuw %"struct.tbb::detail::d1::intrusive_list_node", ptr %18, i32 0, i32 1
  %20 = load ptr, ptr %19, align 8, !tbaa !58
  %21 = getelementptr inbounds nuw %"struct.tbb::detail::d1::intrusive_list_node", ptr %20, i32 0, i32 0
  store ptr %17, ptr %21, align 8, !tbaa !81
  %22 = load ptr, ptr %4, align 8, !tbaa !48
  %23 = call noundef nonnull align 8 dereferenceable(16) ptr @_ZN3tbb6detail2r119intrusive_list_baseINS1_14intrusive_listINS1_24thread_dispatcher_clientEEES4_E4nodeERS4_(ptr noundef nonnull align 8 dereferenceable(32) %22)
  %24 = getelementptr inbounds nuw %"class.tbb::detail::r1::intrusive_list_base", ptr %5, i32 0, i32 0
  %25 = getelementptr inbounds nuw %"struct.tbb::detail::d1::intrusive_list_node", ptr %24, i32 0, i32 1
  store ptr %23, ptr %25, align 8, !tbaa !58
  %26 = getelementptr inbounds nuw %"class.tbb::detail::r1::intrusive_list_base", ptr %5, i32 0, i32 1
  %27 = load i64, ptr %26, align 8, !tbaa !82
  %28 = add i64 %27, 1
  store i64 %28, ptr %26, align 8, !tbaa !82
  call void @_ZNK3tbb6detail2r119intrusive_list_baseINS1_14intrusive_listINS1_24thread_dispatcher_clientEEES4_E9assert_okEv(ptr noundef nonnull align 8 dereferenceable(24) %5)
  ret void
}

; Function Attrs: mustprogress sspstrong uwtable
define linkonce_odr noundef i32 @_ZN3tbb6detail2r124thread_dispatcher_client14priority_levelEv(ptr noundef nonnull align 8 dereferenceable(32) %0) #0 comdat align 2 {
  %2 = alloca ptr, align 8
  store ptr %0, ptr %2, align 8, !tbaa !48
  %3 = load ptr, ptr %2, align 8
  %4 = getelementptr inbounds nuw %"class.tbb::detail::r1::thread_dispatcher_client", ptr %3, i32 0, i32 1
  %5 = load ptr, ptr %4, align 8, !tbaa !51
  %6 = call noundef i32 @_ZN3tbb6detail2r15arena14priority_levelEv(ptr noundef nonnull align 128 dereferenceable(768) %5)
  ret i32 %6
}

; Function Attrs: mustprogress sspstrong uwtable
define void @_ZN3tbb6detail2r117thread_dispatcher13insert_clientERNS1_24thread_dispatcher_clientE(ptr noundef nonnull align 8 dereferenceable(152) %0, ptr noundef nonnull align 8 dereferenceable(32) %1) #0 align 2 {
  %3 = alloca ptr, align 8
  %4 = alloca ptr, align 8
  store ptr %0, ptr %3, align 8, !tbaa !3
  store ptr %1, ptr %4, align 8, !tbaa !48
  %5 = load ptr, ptr %3, align 8
  %6 = getelementptr inbounds nuw %"class.tbb::detail::r1::thread_dispatcher", ptr %5, i32 0, i32 2
  %7 = load ptr, ptr %4, align 8, !tbaa !48
  %8 = call noundef i32 @_ZN3tbb6detail2r124thread_dispatcher_client14priority_levelEv(ptr noundef nonnull align 8 dereferenceable(32) %7)
  %9 = zext i32 %8 to i64
  %10 = getelementptr inbounds nuw [3 x %"class.tbb::detail::r1::intrusive_list"], ptr %6, i64 0, i64 %9
  %11 = load ptr, ptr %4, align 8, !tbaa !48
  call void @_ZN3tbb6detail2r119intrusive_list_baseINS1_14intrusive_listINS1_24thread_dispatcher_clientEEES4_E10push_frontERS4_(ptr noundef nonnull align 8 dereferenceable(24) %10, ptr noundef nonnull align 8 dereferenceable(32) %11)
  %12 = getelementptr inbounds nuw %"class.tbb::detail::r1::thread_dispatcher", ptr %5, i32 0, i32 3
  %13 = load ptr, ptr %12, align 8, !tbaa !16
  %14 = call noundef ptr @_ZN3tbb6detail2r117thread_dispatcher18select_next_clientEPNS1_24thread_dispatcher_clientE(ptr noundef nonnull align 8 dereferenceable(152) %5, ptr noundef %13)
  %15 = getelementptr inbounds nuw %"class.tbb::detail::r1::thread_dispatcher", ptr %5, i32 0, i32 3
  store ptr %14, ptr %15, align 8, !tbaa !16
  ret void
}