; Function Attrs: mustprogress nofree norecurse nosync nounwind sspstrong memory(readwrite, inaccessiblemem: none) uwtable
define void @_ZN3tbb6detail2r117thread_dispatcher13insert_clientERNS1_24thread_dispatcher_clientE(ptr noundef nonnull align 8 dereferenceable(152) %0, ptr noundef nonnull align 8 dereferenceable(32) initializes((0, 16)) %1) local_unnamed_addr #9 align 2 {
  %3 = getelementptr inbounds nuw i8, ptr %0, i64 16
  %4 = getelementptr inbounds nuw i8, ptr %1, i64 16
  %5 = load ptr, ptr %4, align 8, !tbaa !39
  %6 = getelementptr inbounds nuw i8, ptr %5, i64 220
  %7 = load i32, ptr %6, align 4, !tbaa !42
  %8 = zext i32 %7 to i64
  %9 = getelementptr inbounds nuw [3 x %"class.tbb::detail::r1::intrusive_list"], ptr %3, i64 0, i64 %8
  store ptr %9, ptr %1, align 8, !tbaa !82
  %10 = getelementptr inbounds nuw i8, ptr %9, i64 8
  %11 = load ptr, ptr %10, align 8, !tbaa !15
  %12 = getelementptr inbounds nuw i8, ptr %1, i64 8
  store ptr %11, ptr %12, align 8, !tbaa !83
  store ptr %1, ptr %11, align 8, !tbaa !82
  store ptr %1, ptr %10, align 8, !tbaa !15
  %13 = getelementptr inbounds nuw i8, ptr %9, i64 16
  %14 = load i64, ptr %13, align 8, !tbaa !84
  %15 = add i64 %14, 1
  store i64 %15, ptr %13, align 8, !tbaa !84
  %16 = getelementptr inbounds nuw i8, ptr %0, i64 88
  %17 = load ptr, ptr %16, align 8, !tbaa !16
  %.not.i = icmp eq ptr %17, null
  br i1 %.not.i, label %.lr.ph.preheader.i, label %18

18:                                               ; preds = %2
  %19 = getelementptr inbounds nuw i8, ptr %17, i64 16
  %20 = load ptr, ptr %19, align 8, !tbaa !39
  %21 = getelementptr inbounds nuw i8, ptr %20, i64 220
  %22 = load i32, ptr %21, align 4, !tbaa !42
  %.not1415.not.i = icmp eq i32 %22, 0
  br i1 %.not1415.not.i, label %_ZN3tbb6detail2r117thread_dispatcher18select_next_clientEPNS1_24thread_dispatcher_clientE.exit, label %.lr.ph.preheader.i

.lr.ph.preheader.i:                               ; preds = %2, %18
  %.01122.i = phi i32 [ %22, %18 ], [ 3, %2 ]
  %wide.trip.count.i = zext i32 %.01122.i to i64
  br label %.lr.ph.i

23:                                               ; preds = %.lr.ph.i
  %indvars.iv.next.i = add nuw nsw i64 %indvars.iv.i, 1
  %exitcond.not.i = icmp eq i64 %indvars.iv.next.i, %wide.trip.count.i
  br i1 %exitcond.not.i, label %_ZN3tbb6detail2r117thread_dispatcher18select_next_clientEPNS1_24thread_dispatcher_clientE.exit, label %.lr.ph.i, !llvm.loop !73

.lr.ph.i:                                         ; preds = %23, %.lr.ph.preheader.i
  %indvars.iv.i = phi i64 [ 0, %.lr.ph.preheader.i ], [ %indvars.iv.next.i, %23 ]
  %24 = getelementptr inbounds nuw [3 x %"class.tbb::detail::r1::intrusive_list"], ptr %3, i64 0, i64 %indvars.iv.i
  %25 = getelementptr inbounds nuw i8, ptr %24, i64 8
  %26 = load ptr, ptr %25, align 8, !tbaa !15
  %27 = icmp eq ptr %26, %24
  br i1 %27, label %23, label %_ZN3tbb6detail2r117thread_dispatcher18select_next_clientEPNS1_24thread_dispatcher_clientE.exit

_ZN3tbb6detail2r117thread_dispatcher18select_next_clientEPNS1_24thread_dispatcher_clientE.exit: ; preds = %23, %.lr.ph.i, %18
  %spec.select.i = phi ptr [ %17, %18 ], [ %17, %23 ], [ %26, %.lr.ph.i ]
  store ptr %spec.select.i, ptr %16, align 8, !tbaa !16
  ret void
}